; Function Attrs: nounwind uwtable
define void @PHP_CRC32Update(ptr noundef %0, ptr noundef %1, i64 noundef %2) #1 {
  %4 = tail call i64 @crc32_x86_simd_update(i32 noundef 0, ptr noundef %0, ptr noundef %1, i64 noundef %2) #4
  %5 = icmp ult i64 %4, %2
  br i1 %5, label %.lr.ph, label %._crit_edge

.lr.ph:                                           ; preds = %3
  %.promoted = load i32, ptr %0, align 4
  br label %6

6:                                                ; preds = %.lr.ph, %6
  %7 = phi i32 [ %.promoted, %.lr.ph ], [ %17, %6 ]
  %.011 = phi i64 [ %4, %.lr.ph ], [ %18, %6 ]
  %8 = shl i32 %7, 8
  %9 = lshr i32 %7, 24
  %10 = getelementptr inbounds i8, ptr %1, i64 %.011
  %11 = load i8, ptr %10, align 1
  %12 = zext i8 %11 to i32
  %13 = xor i32 %9, %12
  %14 = zext nneg i32 %13 to i64
  %15 = getelementptr inbounds [256 x i32], ptr @crc32_table, i64 0, i64 %14
  %16 = load i32, ptr %15, align 4
  %17 = xor i32 %16, %8
  store i32 %17, ptr %0, align 4
  %18 = add nuw i64 %.011, 1
  %exitcond.not = icmp eq i64 %18, %2
  br i1 %exitcond.not, label %._crit_edge, label %6

._crit_edge:                                      ; preds = %6, %3
  ret void
}